; ModuleID = '40/89.c'
source_filename = "40/89.c"
target datalayout = "e-m:e-p270:32:32-p271:32:32-p272:64:64-i64:64-f80:128-n8:16:32:64-S128"
target triple = "x86_64-pc-linux-gnu"

@.str = private unnamed_addr constant [13 x i8] c"%lf%lf%lf%lf\00", align 1
@.str.1 = private unnamed_addr constant [4 x i8] c"%lf\00", align 1
@.str.2 = private unnamed_addr constant [6 x i8] c"%.4lf\00", align 1
@.str.3 = private unnamed_addr constant [14 x i8] c"Invalid input\00", align 1

; Function Attrs: noinline nounwind uwtable
define dso_local i32 @main(i32 %0, i8** %1) #0 {
  %3 = alloca i32, align 4
  %4 = alloca i32, align 4
  %5 = alloca i8**, align 8
  %6 = alloca double, align 8
  %7 = alloca double, align 8
  %8 = alloca double, align 8
  %9 = alloca double, align 8
  %10 = alloca double, align 8
  %11 = alloca double, align 8
  %12 = alloca double, align 8
  %13 = alloca double, align 8
  %14 = alloca double, align 8
  store i32 0, i32* %3, align 4
  store i32 %0, i32* %4, align 4
  store i8** %1, i8*** %5, align 8
  store double 0x400921FB4D12D84A, double* %6, align 8
  store double 0.000000e+00, double* %12, align 8
  %15 = call i32 (i8*, ...) @__isoc99_scanf(i8* getelementptr inbounds ([13 x i8], [13 x i8]* @.str, i64 0, i64 0), double* %7, double* %8, double* %9, double* %10)
  %16 = call i32 (i8*, ...) @__isoc99_scanf(i8* getelementptr inbounds ([4 x i8], [4 x i8]* @.str.1, i64 0, i64 0), double* %11)
  %17 = load double, double* %11, align 8
  %18 = fdiv double %17, 1.800000e+02
  %19 = load double, double* %6, align 8
  %20 = fmul double %18, %19
  store double %20, double* %13, align 8
  %21 = load double, double* %7, align 8
  %22 = load double, double* %8, align 8
  %23 = fadd double %21, %22
  %24 = load double, double* %9, align 8
  %25 = fadd double %23, %24
  %26 = load double, double* %10, align 8
  %27 = fadd double %25, %26
  %28 = fmul double %27, 5.000000e-01
  store double %28, double* %12, align 8
  %29 = load double, double* %12, align 8
  %30 = load double, double* %7, align 8
  %31 = fsub double %29, %30
  %32 = load double, double* %12, align 8
  %33 = load double, double* %8, align 8
  %34 = fsub double %32, %33
  %35 = fmul double %31, %34
  %36 = load double, double* %12, align 8
  %37 = load double, double* %9, align 8
  %38 = fsub double %36, %37
  %39 = fmul double %35, %38
  %40 = load double, double* %12, align 8
  %41 = load double, double* %10, align 8
  %42 = fsub double %40, %41
  %43 = fmul double %39, %42
  %44 = load double, double* %7, align 8
  %45 = load double, double* %8, align 8
  %46 = fmul double %44, %45
  %47 = load double, double* %9, align 8
  %48 = fmul double %46, %47
  %49 = load double, double* %10, align 8
  %50 = fmul double %48, %49
  %51 = load double, double* %13, align 8
  %52 = fdiv double %51, 2.000000e+00
  %53 = call double @cos(double %52) #3
  %54 = fmul double %50, %53
  %55 = load double, double* %13, align 8
  %56 = fdiv double %55, 2.000000e+00
  %57 = call double @cos(double %56) #3
  %58 = fmul double %54, %57
  %59 = fsub double %43, %58
  %60 = fcmp oge double %59, 0.000000e+00
  br i1 %60, label %61, label %96

61:                                               ; preds = %2
  %62 = load double, double* %12, align 8
  %63 = load double, double* %7, align 8
  %64 = fsub double %62, %63
  %65 = load double, double* %12, align 8
  %66 = load double, double* %8, align 8
  %67 = fsub double %65, %66
  %68 = fmul double %64, %67
  %69 = load double, double* %12, align 8
  %70 = load double, double* %9, align 8
  %71 = fsub double %69, %70
  %72 = fmul double %68, %71
  %73 = load double, double* %12, align 8
  %74 = load double, double* %10, align 8
  %75 = fsub double %73, %74
  %76 = fmul double %72, %75
  %77 = load double, double* %7, align 8
  %78 = load double, double* %8, align 8
  %79 = fmul double %77, %78
  %80 = load double, double* %9, align 8
  %81 = fmul double %79, %80
  %82 = load double, double* %10, align 8
  %83 = fmul double %81, %82
  %84 = load double, double* %13, align 8
  %85 = fdiv double %84, 2.000000e+00
  %86 = call double @cos(double %85) #3
  %87 = fmul double %83, %86
  %88 = load double, double* %13, align 8
  %89 = fdiv double %88, 2.000000e+00
  %90 = call double @cos(double %89) #3
  %91 = fmul double %87, %90
  %92 = fsub double %76, %91
  %93 = call double @sqrt(double %92) #3
  store double %93, double* %14, align 8
  %94 = load double, double* %14, align 8
  %95 = call i32 (i8*, ...) @printf(i8* getelementptr inbounds ([6 x i8], [6 x i8]* @.str.2, i64 0, i64 0), double %94)
  br label %98

96:                                               ; preds = %2
  %97 = call i32 (i8*, ...) @printf(i8* getelementptr inbounds ([14 x i8], [14 x i8]* @.str.3, i64 0, i64 0))
  br label %98

98:                                               ; preds = %96, %61
  ret i32 0
}

declare dso_local i32 @__isoc99_scanf(i8*, ...) #1

; Function Attrs: nounwind
declare dso_local double @cos(double) #2

; Function Attrs: nounwind
declare dso_local double @sqrt(double) #2

declare dso_local i32 @printf(i8*, ...) #1


!llvm.module.flags = !{!0}
!llvm.ident = !{!1}

!0 = !{i32 1, !"wchar_size", i32 4}
!1 = !{!"clang version 10.0.0-4ubuntu1 "}
